; ModuleID = '10/1319.c'
source_filename = "10/1319.c"
target datalayout = "e-m:e-p270:32:32-p271:32:32-p272:64:64-i64:64-f80:128-n8:16:32:64-S128"
target triple = "x86_64-pc-linux-gnu"

@.str = private unnamed_addr constant [3 x i8] c"%d\00", align 1

; Function Attrs: noinline nounwind uwtable
define dso_local i32 @max(i32 %0, i32 %1) #0 {
  %3 = alloca i32, align 4
  %4 = alloca i32, align 4
  %5 = alloca i32, align 4
  store i32 %0, i32* %4, align 4
  store i32 %1, i32* %5, align 4
  %6 = load i32, i32* %4, align 4
  %7 = load i32, i32* %5, align 4
  %8 = icmp sge i32 %6, %7
  br i1 %8, label %9, label %11

9:                                                ; preds = %2
  %10 = load i32, i32* %4, align 4
  store i32 %10, i32* %3, align 4
  br label %13

11:                                               ; preds = %2
  %12 = load i32, i32* %5, align 4
  store i32 %12, i32* %3, align 4
  br label %13

13:                                               ; preds = %11, %9
  %14 = load i32, i32* %3, align 4
  ret i32 %14
}

; Function Attrs: noinline nounwind uwtable
define dso_local i32 @main() #0 {
  %1 = alloca i32, align 4
  %2 = alloca i32, align 4
  %3 = alloca i32, align 4
  %4 = alloca i32, align 4
  %5 = alloca [25 x i32], align 16
  %6 = alloca i32, align 4
  %7 = alloca [25 x i32], align 16
  %8 = alloca [25 x i32], align 16
  %9 = alloca i32, align 4
  %10 = alloca i32, align 4
  store i32 0, i32* %1, align 4
  store i32 0, i32* %2, align 4
  br label %11

11:                                               ; preds = %24, %0
  %12 = load i32, i32* %2, align 4
  %13 = icmp slt i32 %12, 25
  br i1 %13, label %14, label %27

14:                                               ; preds = %11
  %15 = load i32, i32* %2, align 4
  %16 = sext i32 %15 to i64
  %17 = getelementptr inbounds [25 x i32], [25 x i32]* %5, i64 0, i64 %16
  store i32 0, i32* %17, align 4
  %18 = load i32, i32* %2, align 4
  %19 = sext i32 %18 to i64
  %20 = getelementptr inbounds [25 x i32], [25 x i32]* %8, i64 0, i64 %19
  store i32 0, i32* %20, align 4
  %21 = load i32, i32* %2, align 4
  %22 = sext i32 %21 to i64
  %23 = getelementptr inbounds [25 x i32], [25 x i32]* %7, i64 0, i64 %22
  store i32 0, i32* %23, align 4
  br label %24

24:                                               ; preds = %14
  %25 = load i32, i32* %2, align 4
  %26 = add nsw i32 %25, 1
  store i32 %26, i32* %2, align 4
  br label %11

27:                                               ; preds = %11
  %28 = call i32 (i8*, ...) @__isoc99_scanf(i8* getelementptr inbounds ([3 x i8], [3 x i8]* @.str, i64 0, i64 0), i32* %4)
  store i32 0, i32* %2, align 4
  br label %29

29:                                               ; preds = %38, %27
  %30 = load i32, i32* %2, align 4
  %31 = load i32, i32* %4, align 4
  %32 = icmp slt i32 %30, %31
  br i1 %32, label %33, label %41

33:                                               ; preds = %29
  %34 = load i32, i32* %2, align 4
  %35 = sext i32 %34 to i64
  %36 = getelementptr inbounds [25 x i32], [25 x i32]* %5, i64 0, i64 %35
  %37 = call i32 (i8*, ...) @__isoc99_scanf(i8* getelementptr inbounds ([3 x i8], [3 x i8]* @.str, i64 0, i64 0), i32* %36)
  br label %38

38:                                               ; preds = %33
  %39 = load i32, i32* %2, align 4
  %40 = add nsw i32 %39, 1
  store i32 %40, i32* %2, align 4
  br label %29

41:                                               ; preds = %29
  %42 = load i32, i32* %4, align 4
  %43 = sub nsw i32 %42, 1
  %44 = sext i32 %43 to i64
  %45 = getelementptr inbounds [25 x i32], [25 x i32]* %8, i64 0, i64 %44
  store i32 1, i32* %45, align 4
  %46 = load i32, i32* %4, align 4
  %47 = sub nsw i32 %46, 2
  store i32 %47, i32* %2, align 4
  br label %48

48:                                               ; preds = %103, %41
  %49 = load i32, i32* %2, align 4
  %50 = icmp sge i32 %49, 0
  br i1 %50, label %51, label %106

51:                                               ; preds = %48
  store i32 0, i32* %9, align 4
  store i32 0, i32* %10, align 4
  br label %52

52:                                               ; preds = %59, %51
  %53 = load i32, i32* %10, align 4
  %54 = icmp slt i32 %53, 25
  br i1 %54, label %55, label %62

55:                                               ; preds = %52
  %56 = load i32, i32* %10, align 4
  %57 = sext i32 %56 to i64
  %58 = getelementptr inbounds [25 x i32], [25 x i32]* %7, i64 0, i64 %57
  store i32 0, i32* %58, align 4
  br label %59

59:                                               ; preds = %55
  %60 = load i32, i32* %10, align 4
  %61 = add nsw i32 %60, 1
  store i32 %61, i32* %10, align 4
  br label %52

62:                                               ; preds = %52
  %63 = load i32, i32* %4, align 4
  %64 = sub nsw i32 %63, 1
  store i32 %64, i32* %3, align 4
  br label %65

65:                                               ; preds = %94, %62
  %66 = load i32, i32* %3, align 4
  %67 = load i32, i32* %2, align 4
  %68 = icmp sgt i32 %66, %67
  br i1 %68, label %69, label %97

69:                                               ; preds = %65
  %70 = load i32, i32* %3, align 4
  %71 = sext i32 %70 to i64
  %72 = getelementptr inbounds [25 x i32], [25 x i32]* %5, i64 0, i64 %71
  %73 = load i32, i32* %72, align 4
  %74 = load i32, i32* %2, align 4
  %75 = sext i32 %74 to i64
  %76 = getelementptr inbounds [25 x i32], [25 x i32]* %5, i64 0, i64 %75
  %77 = load i32, i32* %76, align 4
  %78 = icmp sle i32 %73, %77
  br i1 %78, label %79, label %87

79:                                               ; preds = %69
  %80 = load i32, i32* %3, align 4
  %81 = sext i32 %80 to i64
  %82 = getelementptr inbounds [25 x i32], [25 x i32]* %8, i64 0, i64 %81
  %83 = load i32, i32* %82, align 4
  %84 = load i32, i32* %3, align 4
  %85 = sext i32 %84 to i64
  %86 = getelementptr inbounds [25 x i32], [25 x i32]* %7, i64 0, i64 %85
  store i32 %83, i32* %86, align 4
  br label %87

87:                                               ; preds = %79, %69
  %88 = load i32, i32* %9, align 4
  %89 = load i32, i32* %3, align 4
  %90 = sext i32 %89 to i64
  %91 = getelementptr inbounds [25 x i32], [25 x i32]* %7, i64 0, i64 %90
  %92 = load i32, i32* %91, align 4
  %93 = call i32 @max(i32 %88, i32 %92)
  store i32 %93, i32* %9, align 4
  br label %94

94:                                               ; preds = %87
  %95 = load i32, i32* %3, align 4
  %96 = add nsw i32 %95, -1
  store i32 %96, i32* %3, align 4
  br label %65

97:                                               ; preds = %65
  %98 = load i32, i32* %9, align 4
  %99 = add nsw i32 %98, 1
  %100 = load i32, i32* %2, align 4
  %101 = sext i32 %100 to i64
  %102 = getelementptr inbounds [25 x i32], [25 x i32]* %8, i64 0, i64 %101
  store i32 %99, i32* %102, align 4
  br label %103

103:                                              ; preds = %97
  %104 = load i32, i32* %2, align 4
  %105 = add nsw i32 %104, -1
  store i32 %105, i32* %2, align 4
  br label %48

106:                                              ; preds = %48
  store i32 0, i32* %6, align 4
  store i32 0, i32* %2, align 4
  br label %107

107:                                              ; preds = %118, %106
  %108 = load i32, i32* %2, align 4
  %109 = load i32, i32* %4, align 4
  %110 = icmp slt i32 %108, %109
  br i1 %110, label %111, label %121

111:                                              ; preds = %107
  %112 = load i32, i32* %6, align 4
  %113 = load i32, i32* %2, align 4
  %114 = sext i32 %113 to i64
  %115 = getelementptr inbounds [25 x i32], [25 x i32]* %8, i64 0, i64 %114
  %116 = load i32, i32* %115, align 4
  %117 = call i32 @max(i32 %112, i32 %116)
  store i32 %117, i32* %6, align 4
  br label %118

118:                                              ; preds = %111
  %119 = load i32, i32* %2, align 4
  %120 = add nsw i32 %119, 1
  store i32 %120, i32* %2, align 4
  br label %107

121:                                              ; preds = %107
  %122 = load i32, i32* %6, align 4
  %123 = call i32 (i8*, ...) @printf(i8* getelementptr inbounds ([3 x i8], [3 x i8]* @.str, i64 0, i64 0), i32 %122)
  %124 = load i32, i32* %1, align 4
  ret i32 %124
}

declare dso_local i32 @__isoc99_scanf(i8*, ...) #1

declare dso_local i32 @printf(i8*, ...) #1


!llvm.module.flags = !{!0}
!llvm.ident = !{!1}

!0 = !{i32 1, !"wchar_size", i32 4}
!1 = !{!"clang version 10.0.0-4ubuntu1 "}
